target datalayout = "e-m:e-p270:32:32-p271:32:32-p272:64:64-i64:64-i128:128-f80:128-n8:16:32:64-S128"
target triple = "x86_64-pc-linux-gnu"

%"class.(anonymous namespace)::GeneralizedHoughBase" = type { ptr, i32, i32, double, double, %"class.cv::Size_", %"class.cv::Point_", %"class.cv::Mat", %"class.cv::Mat", %"class.cv::Mat", %"class.cv::Size_", %"class.cv::Mat", %"class.cv::Mat", %"class.cv::Mat", %"class.std::vector", %"class.std::vector.16" }
%"class.cv::Point_" = type { i32, i32 }
%"class.cv::Size_" = type { i32, i32 }
%"class.std::vector" = type { %"struct.std::_Vector_base" }
%"struct.std::_Vector_base" = type { %"struct.std::_Vector_base<cv::Vec<float, 4>, std::allocator<cv::Vec<float, 4>>>::_Vector_impl" }
%"struct.std::_Vector_base<cv::Vec<float, 4>, std::allocator<cv::Vec<float, 4>>>::_Vector_impl" = type { %"struct.std::_Vector_base<cv::Vec<float, 4>, std::allocator<cv::Vec<float, 4>>>::_Vector_impl_data" }
%"struct.std::_Vector_base<cv::Vec<float, 4>, std::allocator<cv::Vec<float, 4>>>::_Vector_impl_data" = type { ptr, ptr, ptr }
%"class.std::vector.16" = type { %"struct.std::_Vector_base.17" }
%"struct.std::_Vector_base.17" = type { %"struct.std::_Vector_base<cv::Vec<int, 3>, std::allocator<cv::Vec<int, 3>>>::_Vector_impl" }
%"struct.std::_Vector_base<cv::Vec<int, 3>, std::allocator<cv::Vec<int, 3>>>::_Vector_impl" = type { %"struct.std::_Vector_base<cv::Vec<int, 3>, std::allocator<cv::Vec<int, 3>>>::_Vector_impl_data" }
%"struct.std::_Vector_base<cv::Vec<int, 3>, std::allocator<cv::Vec<int, 3>>>::_Vector_impl_data" = type { ptr, ptr, ptr }
%"class.cv::Mat" = type { i32, i32, i32, i32, ptr, ptr, ptr, ptr, ptr, ptr, %"struct.cv::MatSize", %"struct.cv::MatStep" }
%"struct.cv::MatSize" = type { ptr }
%"struct.cv::MatStep" = type { ptr, [2 x i64] }

; Function Attrs: inlinehint mustprogress nounwind uwtable
define linkonce_odr hidden void @_ZN2cv5Size_IiEC2Eii(ptr noundef nonnull align 4 dereferenceable(8) %0, i32 noundef %1, i32 noundef %2) unnamed_addr #3 comdat align 2 {
  %4 = alloca ptr, align 8
  %5 = alloca i32, align 4
  %6 = alloca i32, align 4
  store ptr %0, ptr %4, align 8, !tbaa !140
  store i32 %1, ptr %5, align 4, !tbaa !22
  store i32 %2, ptr %6, align 4, !tbaa !22
  %7 = load ptr, ptr %4, align 8
  %8 = getelementptr inbounds nuw %"class.cv::Size_", ptr %7, i32 0, i32 0
  %9 = load i32, ptr %5, align 4, !tbaa !22
  store i32 %9, ptr %8, align 4, !tbaa !142
  %10 = getelementptr inbounds nuw %"class.cv::Size_", ptr %7, i32 0, i32 1
  %11 = load i32, ptr %6, align 4, !tbaa !22
  store i32 %11, ptr %10, align 4, !tbaa !143
  ret void
}

; Function Attrs: inlinehint mustprogress uwtable
define linkonce_odr hidden i64 @_ZNK2cv7MatSizeclEv(ptr noundef nonnull align 8 dereferenceable(8) %0) #2 comdat align 2 {
  %2 = alloca %"class.cv::Size_", align 4
  %3 = alloca ptr, align 8
  store ptr %0, ptr %3, align 8, !tbaa !209
  %4 = load ptr, ptr %3, align 8
  %5 = getelementptr inbounds nuw %"struct.cv::MatSize", ptr %4, i32 0, i32 0
  %6 = load ptr, ptr %5, align 8, !tbaa !211
  %7 = getelementptr inbounds i32, ptr %6, i64 1
  %8 = load i32, ptr %7, align 4, !tbaa !22
  %9 = getelementptr inbounds nuw %"struct.cv::MatSize", ptr %4, i32 0, i32 0
  %10 = load ptr, ptr %9, align 8, !tbaa !211
  %11 = getelementptr inbounds i32, ptr %10, i64 0
  %12 = load i32, ptr %11, align 4, !tbaa !22
  call void @_ZN2cv5Size_IiEC2Eii(ptr noundef nonnull align 4 dereferenceable(8) %2, i32 noundef %8, i32 noundef %12)
  %13 = load i64, ptr %2, align 4
  ret i64 %13
}

; Function Attrs: inlinehint mustprogress nounwind uwtable
define internal noundef zeroext i1 @_ZN2cveqIiEEbRKNS_6Point_IT_EES5_(ptr noundef nonnull align 4 dereferenceable(8) %0, ptr noundef nonnull align 4 dereferenceable(8) %1) #3 {
  %3 = alloca ptr, align 8
  %4 = alloca ptr, align 8
  store ptr %0, ptr %3, align 8, !tbaa !144
  store ptr %1, ptr %4, align 8, !tbaa !144
  %5 = load ptr, ptr %3, align 8, !tbaa !144
  %6 = getelementptr inbounds nuw %"class.cv::Point_", ptr %5, i32 0, i32 0
  %7 = load i32, ptr %6, align 4, !tbaa !146
  %8 = load ptr, ptr %4, align 8, !tbaa !144
  %9 = getelementptr inbounds nuw %"class.cv::Point_", ptr %8, i32 0, i32 0
  %10 = load i32, ptr %9, align 4, !tbaa !146
  %11 = icmp eq i32 %7, %10
  br i1 %11, label %12, label %20

12:                                               ; preds = %2
  %13 = load ptr, ptr %3, align 8, !tbaa !144
  %14 = getelementptr inbounds nuw %"class.cv::Point_", ptr %13, i32 0, i32 1
  %15 = load i32, ptr %14, align 4, !tbaa !147
  %16 = load ptr, ptr %4, align 8, !tbaa !144
  %17 = getelementptr inbounds nuw %"class.cv::Point_", ptr %16, i32 0, i32 1
  %18 = load i32, ptr %17, align 4, !tbaa !147
  %19 = icmp eq i32 %15, %18
  br label %20

20:                                               ; preds = %12, %2
  %21 = phi i1 [ false, %2 ], [ %19, %12 ]
  ret i1 %21
}

; Function Attrs: inlinehint mustprogress nounwind uwtable
define linkonce_odr hidden void @_ZN2cv6Point_IiEC2Eii(ptr noundef nonnull align 4 dereferenceable(8) %0, i32 noundef %1, i32 noundef %2) unnamed_addr #3 comdat align 2 {
  %4 = alloca ptr, align 8
  %5 = alloca i32, align 4
  %6 = alloca i32, align 4
  store ptr %0, ptr %4, align 8, !tbaa !144
  store i32 %1, ptr %5, align 4, !tbaa !22
  store i32 %2, ptr %6, align 4, !tbaa !22
  %7 = load ptr, ptr %4, align 8
  %8 = getelementptr inbounds nuw %"class.cv::Point_", ptr %7, i32 0, i32 0
  %9 = load i32, ptr %5, align 4, !tbaa !22
  store i32 %9, ptr %8, align 4, !tbaa !146
  %10 = getelementptr inbounds nuw %"class.cv::Point_", ptr %7, i32 0, i32 1
  %11 = load i32, ptr %6, align 4, !tbaa !22
  store i32 %11, ptr %10, align 4, !tbaa !147
  ret void
}

; Function Attrs: mustprogress uwtable
define internal void @_ZN12_GLOBAL__N_120GeneralizedHoughBase15setTemplateImplERKN2cv11_InputArrayENS1_6Point_IiEE(ptr noundef nonnull align 8 dereferenceable(680) %0, ptr noundef nonnull align 8 dereferenceable(24) %1, i64 %2) #0 align 2 {
  %4 = alloca %"class.cv::Point_", align 4
  %5 = alloca ptr, align 8
  %6 = alloca ptr, align 8
  %7 = alloca %"class.cv::Point_", align 4
  %8 = alloca %"class.cv::Point_", align 4
  %9 = alloca %"class.cv::Size_", align 4
  store i64 %2, ptr %4, align 4
  store ptr %0, ptr %5, align 8, !tbaa !108
  store ptr %1, ptr %6, align 8, !tbaa !122
  %10 = load ptr, ptr %5, align 8
  %11 = load ptr, ptr %6, align 8, !tbaa !122
  %12 = getelementptr inbounds nuw %"class.(anonymous namespace)::GeneralizedHoughBase", ptr %10, i32 0, i32 7
  %13 = getelementptr inbounds nuw %"class.(anonymous namespace)::GeneralizedHoughBase", ptr %10, i32 0, i32 8
  %14 = getelementptr inbounds nuw %"class.(anonymous namespace)::GeneralizedHoughBase", ptr %10, i32 0, i32 9
  call void @_ZN12_GLOBAL__N_120GeneralizedHoughBase9calcEdgesERKN2cv11_InputArrayERNS1_3MatES6_S6_(ptr noundef nonnull align 8 dereferenceable(680) %10, ptr noundef nonnull align 8 dereferenceable(24) %11, ptr noundef nonnull align 8 dereferenceable(96) %12, ptr noundef nonnull align 8 dereferenceable(96) %13, ptr noundef nonnull align 8 dereferenceable(96) %14)
  call void @llvm.lifetime.start.p0(i64 8, ptr %7) #25
  call void @_ZN2cv6Point_IiEC2Eii(ptr noundef nonnull align 4 dereferenceable(8) %7, i32 noundef -1, i32 noundef -1)
  %15 = call noundef zeroext i1 @_ZN2cveqIiEEbRKNS_6Point_IT_EES5_(ptr noundef nonnull align 4 dereferenceable(8) %4, ptr noundef nonnull align 4 dereferenceable(8) %7)
  call void @llvm.lifetime.end.p0(i64 8, ptr %7) #25
  br i1 %15, label %16, label %25

16:                                               ; preds = %3
  call void @llvm.lifetime.start.p0(i64 8, ptr %8) #25
  %17 = getelementptr inbounds nuw %"class.(anonymous namespace)::GeneralizedHoughBase", ptr %10, i32 0, i32 7
  %18 = getelementptr inbounds nuw %"class.cv::Mat", ptr %17, i32 0, i32 3
  %19 = load i32, ptr %18, align 4, !tbaa !205
  %20 = sdiv i32 %19, 2
  %21 = getelementptr inbounds nuw %"class.(anonymous namespace)::GeneralizedHoughBase", ptr %10, i32 0, i32 7
  %22 = getelementptr inbounds nuw %"class.cv::Mat", ptr %21, i32 0, i32 2
  %23 = load i32, ptr %22, align 8, !tbaa !206
  %24 = sdiv i32 %23, 2
  call void @_ZN2cv6Point_IiEC2Eii(ptr noundef nonnull align 4 dereferenceable(8) %8, i32 noundef %20, i32 noundef %24)
  call void @llvm.memcpy.p0.p0.i64(ptr align 4 %4, ptr align 4 %8, i64 8, i1 false), !tbaa.struct !124
  call void @llvm.lifetime.end.p0(i64 8, ptr %8) #25
  br label %25

25:                                               ; preds = %16, %3
  call void @llvm.lifetime.start.p0(i64 8, ptr %9) #25
  %26 = getelementptr inbounds nuw %"class.(anonymous namespace)::GeneralizedHoughBase", ptr %10, i32 0, i32 7
  %27 = getelementptr inbounds nuw %"class.cv::Mat", ptr %26, i32 0, i32 10
  %28 = call i64 @_ZNK2cv7MatSizeclEv(ptr noundef nonnull align 8 dereferenceable(8) %27)
  store i64 %28, ptr %9, align 4
  %29 = getelementptr inbounds nuw %"class.(anonymous namespace)::GeneralizedHoughBase", ptr %10, i32 0, i32 5
  call void @llvm.memcpy.p0.p0.i64(ptr align 8 %29, ptr align 4 %9, i64 8, i1 false), !tbaa.struct !124
  call void @llvm.lifetime.end.p0(i64 8, ptr %9) #25
  %30 = getelementptr inbounds nuw %"class.(anonymous namespace)::GeneralizedHoughBase", ptr %10, i32 0, i32 6
  call void @llvm.memcpy.p0.p0.i64(ptr align 8 %30, ptr align 4 %4, i64 8, i1 false), !tbaa.struct !124
  %31 = load ptr, ptr %10, align 8, !tbaa !31
  %32 = getelementptr inbounds ptr, ptr %31, i64 2
  %33 = load ptr, ptr %32, align 8
  call void %33(ptr noundef nonnull align 8 dereferenceable(680) %10)
  ret void
}

; Function Attrs: mustprogress uwtable
define internal void @_ZN12_GLOBAL__N_127GeneralizedHoughBallardImpl11setTemplateERKN2cv11_InputArrayENS1_6Point_IiEE(ptr noundef nonnull align 8 dereferenceable(816) %0, ptr noundef nonnull align 8 dereferenceable(24) %1, i64 %2) unnamed_addr #0 align 2 {
  %4 = alloca %"class.cv::Point_", align 4
  %5 = alloca ptr, align 8
  %6 = alloca ptr, align 8
  %7 = alloca %"class.cv::Point_", align 4
  store i64 %2, ptr %4, align 4
  store ptr %0, ptr %5, align 8, !tbaa !53
  store ptr %1, ptr %6, align 8, !tbaa !122
  %8 = load ptr, ptr %5, align 8
  %9 = getelementptr inbounds i8, ptr %8, i64 8
  %10 = load ptr, ptr %6, align 8, !tbaa !122
  call void @llvm.memcpy.p0.p0.i64(ptr align 4 %7, ptr align 4 %4, i64 8, i1 false), !tbaa.struct !124
  %11 = load i64, ptr %7, align 4
  call void @_ZN12_GLOBAL__N_120GeneralizedHoughBase15setTemplateImplERKN2cv11_InputArrayENS1_6Point_IiEE(ptr noundef nonnull align 8 dereferenceable(680) %9, ptr noundef nonnull align 8 dereferenceable(24) %10, i64 %11)
  ret void
}