; Function Attrs: mustprogress uwtable
define internal void @_ZN12_GLOBAL__N_127GeneralizedHoughBallardImpl11setTemplateERKN2cv11_InputArrayENS1_6Point_IiEE(ptr noundef nonnull align 8 dereferenceable(816) %0, ptr noundef nonnull align 8 dereferenceable(24) %1, i64 %2) unnamed_addr #0 align 2 {
  %4 = getelementptr inbounds nuw i8, ptr %0, i64 8
  %.sroa.07.0.extract.trunc.i = trunc i64 %2 to i32
  %.sroa.49.0.extract.shift.i = lshr i64 %2, 32
  %.sroa.49.0.extract.trunc.i = trunc nuw i64 %.sroa.49.0.extract.shift.i to i32
  %5 = getelementptr inbounds nuw i8, ptr %0, i64 56
  %6 = getelementptr inbounds nuw i8, ptr %0, i64 152
  %7 = getelementptr inbounds nuw i8, ptr %0, i64 248
  tail call fastcc void @_ZN12_GLOBAL__N_120GeneralizedHoughBase9calcEdgesERKN2cv11_InputArrayERNS1_3MatES6_S6_(ptr noundef nonnull align 8 dereferenceable(680) %4, ptr noundef nonnull align 8 dereferenceable(24) %1, ptr noundef nonnull align 8 dereferenceable(96) %5, ptr noundef nonnull align 8 dereferenceable(96) %6, ptr noundef nonnull align 8 dereferenceable(96) %7)
  %8 = icmp eq i32 %.sroa.07.0.extract.trunc.i, -1
  %9 = icmp eq i64 %.sroa.49.0.extract.shift.i, 4294967295
  %10 = and i1 %8, %9
  br i1 %10, label %11, label %_ZN12_GLOBAL__N_120GeneralizedHoughBase15setTemplateImplERKN2cv11_InputArrayENS1_6Point_IiEE.exit

11:                                               ; preds = %3
  %12 = getelementptr inbounds nuw i8, ptr %0, i64 68
  %13 = load i32, ptr %12, align 4, !tbaa !105
  %14 = sdiv i32 %13, 2
  %15 = getelementptr inbounds nuw i8, ptr %0, i64 64
  %16 = load i32, ptr %15, align 8, !tbaa !106
  %17 = sdiv i32 %16, 2
  br label %_ZN12_GLOBAL__N_120GeneralizedHoughBase15setTemplateImplERKN2cv11_InputArrayENS1_6Point_IiEE.exit

_ZN12_GLOBAL__N_120GeneralizedHoughBase15setTemplateImplERKN2cv11_InputArrayENS1_6Point_IiEE.exit: ; preds = %3, %11
  %.sroa.07.0.i = phi i32 [ %14, %11 ], [ %.sroa.07.0.extract.trunc.i, %3 ]
  %.sroa.49.0.i = phi i32 [ %17, %11 ], [ %.sroa.49.0.extract.trunc.i, %3 ]
  %18 = getelementptr inbounds nuw i8, ptr %0, i64 120
  %19 = load ptr, ptr %18, align 8, !tbaa !107
  %20 = getelementptr inbounds nuw i8, ptr %19, i64 4
  %21 = load i32, ptr %20, align 4, !tbaa !108
  %22 = load i32, ptr %19, align 4, !tbaa !108
  %.sroa.2.0.insert.ext.i.i = zext i32 %22 to i64
  %.sroa.2.0.insert.shift.i.i = shl nuw i64 %.sroa.2.0.insert.ext.i.i, 32
  %.sroa.0.0.insert.ext.i.i = zext i32 %21 to i64
  %.sroa.0.0.insert.insert.i.i = or disjoint i64 %.sroa.2.0.insert.shift.i.i, %.sroa.0.0.insert.ext.i.i
  %23 = getelementptr inbounds nuw i8, ptr %0, i64 40
  store i64 %.sroa.0.0.insert.insert.i.i, ptr %23, align 8
  %24 = getelementptr inbounds nuw i8, ptr %0, i64 48
  %.sroa.49.0.insert.ext.i = zext i32 %.sroa.49.0.i to i64
  %.sroa.49.0.insert.shift.i = shl nuw i64 %.sroa.49.0.insert.ext.i, 32
  %.sroa.07.0.insert.ext.i = zext i32 %.sroa.07.0.i to i64
  %.sroa.07.0.insert.insert.i = or disjoint i64 %.sroa.49.0.insert.shift.i, %.sroa.07.0.insert.ext.i
  store i64 %.sroa.07.0.insert.insert.i, ptr %24, align 8
  %25 = load ptr, ptr %4, align 8, !tbaa !14
  %26 = getelementptr inbounds nuw i8, ptr %25, i64 16
  %27 = load ptr, ptr %26, align 8
  tail call void %27(ptr noundef nonnull align 8 dereferenceable(680) %4)
  ret void
}